; Function Attrs: mustprogress uwtable
define internal fastcc noundef zeroext i1 @_ZN32pxrInternal_v0_24__pxrReserved__12_GLOBAL__N_115_HasInputPrefixERKNS_7TfTokenEPNSt7__cxx1112basic_stringIcSt11char_traitsIcESaIcEEE(ptr %.0.val, ptr noundef %0) unnamed_addr #0 personality ptr @__gxx_personality_v0 {
  %2 = alloca %"struct.std::pair.133", align 8
  %3 = alloca %"class.std::__cxx11::basic_string", align 8
  %4 = alloca %"class.std::allocator.71", align 1
  %5 = ptrtoint ptr %.0.val to i64
  %6 = and i64 %5, -8
  %.not.i.i = icmp eq i64 %6, 0
  br i1 %.not.i.i, label %10, label %7

7:                                                ; preds = %1
  %8 = inttoptr i64 %6 to ptr
  %9 = getelementptr inbounds nuw i8, ptr %8, i64 16
  br label %_ZNK32pxrInternal_v0_24__pxrReserved__7TfTokencvRKNSt7__cxx1112basic_stringIcSt11char_traitsIcESaIcEEEEv.exit

10:                                               ; preds = %1
  %11 = tail call noundef nonnull align 8 dereferenceable(32) ptr @_ZN32pxrInternal_v0_24__pxrReserved__7TfToken15_GetEmptyStringB5cxx11Ev()
  br label %_ZNK32pxrInternal_v0_24__pxrReserved__7TfTokencvRKNSt7__cxx1112basic_stringIcSt11char_traitsIcESaIcEEEEv.exit

_ZNK32pxrInternal_v0_24__pxrReserved__7TfTokencvRKNSt7__cxx1112basic_stringIcSt11char_traitsIcESaIcEEEEv.exit: ; preds = %7, %10
  %12 = phi ptr [ %9, %7 ], [ %11, %10 ]
  call void @_ZNSaIcEC1Ev(ptr noundef nonnull align 1 dereferenceable(1) %4) #19
  %13 = invoke noundef ptr @_ZNSt7__cxx1112basic_stringIcSt11char_traitsIcESaIcEE13_M_local_dataEv(ptr noundef nonnull align 8 dereferenceable(32) %3)
          to label %.noexc unwind label %19

.noexc:                                           ; preds = %_ZNK32pxrInternal_v0_24__pxrReserved__7TfTokencvRKNSt7__cxx1112basic_stringIcSt11char_traitsIcESaIcEEEEv.exit
  invoke void @_ZNSt7__cxx1112basic_stringIcSt11char_traitsIcESaIcEE12_Alloc_hiderC1EPcRKS3_(ptr noundef nonnull align 8 dereferenceable(8) %3, ptr noundef %13, ptr noundef nonnull align 1 dereferenceable(1) %4)
          to label %.noexc10 unwind label %19

.noexc10:                                         ; preds = %.noexc
  invoke void @_ZNSt7__cxx1112basic_stringIcSt11char_traitsIcESaIcEE12_M_constructIPKcEEvT_S8_St20forward_iterator_tag(ptr noundef nonnull align 8 dereferenceable(32) %3, ptr noundef nonnull @.str.10, ptr noundef nonnull getelementptr inbounds (i8, ptr @.str.10, i64 6))
          to label %_ZNSt7__cxx1112basic_stringIcSt11char_traitsIcESaIcEEC2IS3_EEPKcRKS3_.exit unwind label %14

14:                                               ; preds = %.noexc10
  %15 = landingpad { ptr, i32 }
          cleanup
  call void @_ZNSaIcED2Ev(ptr noundef nonnull align 1 dereferenceable(1) %3) #19
  br label %.body

_ZNSt7__cxx1112basic_stringIcSt11char_traitsIcESaIcEEC2IS3_EEPKcRKS3_.exit: ; preds = %.noexc10
  invoke void @_ZN32pxrInternal_v0_24__pxrReserved__7SdfPath20StripPrefixNamespaceERKNSt7__cxx1112basic_stringIcSt11char_traitsIcESaIcEEES8_(ptr dead_on_unwind nonnull writable sret(%"struct.std::pair.133") align 8 %2, ptr noundef nonnull align 8 dereferenceable(32) %12, ptr noundef nonnull align 8 dereferenceable(32) %3)
          to label %16 unwind label %21

16:                                               ; preds = %_ZNSt7__cxx1112basic_stringIcSt11char_traitsIcESaIcEEC2IS3_EEPKcRKS3_.exit
  call void @_ZNSt7__cxx1112basic_stringIcSt11char_traitsIcESaIcEED1Ev(ptr noundef nonnull align 8 dereferenceable(32) %3) #19
  call void @_ZNSaIcED1Ev(ptr noundef nonnull align 1 dereferenceable(1) %4) #19
  %.not = icmp eq ptr %0, null
  br i1 %.not, label %25, label %17

17:                                               ; preds = %16
  %18 = invoke noundef nonnull align 8 dereferenceable(32) ptr @_ZNSt7__cxx1112basic_stringIcSt11char_traitsIcESaIcEEaSERKS4_(ptr noundef nonnull align 8 dereferenceable(32) %0, ptr noundef nonnull align 8 dereferenceable(32) %2)
          to label %25 unwind label %23

19:                                               ; preds = %.noexc, %_ZNK32pxrInternal_v0_24__pxrReserved__7TfTokencvRKNSt7__cxx1112basic_stringIcSt11char_traitsIcESaIcEEEEv.exit
  %20 = landingpad { ptr, i32 }
          cleanup
  br label %.body

21:                                               ; preds = %_ZNSt7__cxx1112basic_stringIcSt11char_traitsIcESaIcEEC2IS3_EEPKcRKS3_.exit
  %22 = landingpad { ptr, i32 }
          cleanup
  call void @_ZNSt7__cxx1112basic_stringIcSt11char_traitsIcESaIcEED1Ev(ptr noundef nonnull align 8 dereferenceable(32) %3) #19
  br label %.body

.body:                                            ; preds = %19, %14, %21
  %.pn = phi { ptr, i32 } [ %22, %21 ], [ %20, %19 ], [ %15, %14 ]
  call void @_ZNSaIcED1Ev(ptr noundef nonnull align 1 dereferenceable(1) %4) #19
  br label %29

23:                                               ; preds = %17
  %24 = landingpad { ptr, i32 }
          cleanup
  call void @_ZNSt7__cxx1112basic_stringIcSt11char_traitsIcESaIcEED1Ev(ptr noundef nonnull align 8 dereferenceable(32) %2) #19
  br label %29

25:                                               ; preds = %17, %16
  %26 = getelementptr inbounds nuw i8, ptr %2, i64 32
  %27 = load i8, ptr %26, align 8
  %28 = trunc i8 %27 to i1
  call void @_ZNSt7__cxx1112basic_stringIcSt11char_traitsIcESaIcEED1Ev(ptr noundef nonnull align 8 dereferenceable(32) %2) #19
  ret i1 %28

29:                                               ; preds = %23, %.body
  %.pn8 = phi { ptr, i32 } [ %24, %23 ], [ %.pn, %.body ]
  resume { ptr, i32 } %.pn8
}